target datalayout = "e-m:e-p270:32:32-p271:32:32-p272:64:64-i64:64-f80:128-n8:16:32:64-S128"
target triple = "x86_64-pc-linux-gnu"

@.str = private unnamed_addr constant [6 x i8] c"%d %d\00", align 1
@.str.1 = private unnamed_addr constant [3 x i8] c"%d\00", align 1
@.str.2 = private unnamed_addr constant [4 x i8] c"%d \00", align 1
@.str.3 = private unnamed_addr constant [2 x i8] c"\0A\00", align 1

; Function Attrs: noinline nounwind uwtable
define dso_local void @main() #0 {
  %1 = alloca i32, align 4
  %2 = alloca i32, align 4
  %3 = alloca i32, align 4
  %4 = alloca i32, align 4
  %5 = alloca i32, align 4
  %6 = alloca i32, align 4
  %7 = alloca i32, align 4
  %8 = alloca [100 x [100 x i32]], align 16
  %9 = alloca [100 x [100 x i32]], align 16
  %10 = alloca [100 x [100 x i32]], align 16
  %11 = alloca [100 x i32]*, align 8
  %12 = alloca [100 x i32]*, align 8
  %13 = alloca [100 x i32]*, align 8
  %14 = getelementptr inbounds [100 x [100 x i32]], [100 x [100 x i32]]* %8, i64 0, i64 0
  store [100 x i32]* %14, [100 x i32]** %11, align 8
  %15 = getelementptr inbounds [100 x [100 x i32]], [100 x [100 x i32]]* %9, i64 0, i64 0
  store [100 x i32]* %15, [100 x i32]** %12, align 8
  %16 = getelementptr inbounds [100 x [100 x i32]], [100 x [100 x i32]]* %10, i64 0, i64 0
  store [100 x i32]* %16, [100 x i32]** %13, align 8
  %17 = call i32 (i8*, ...) @__isoc99_scanf(i8* getelementptr inbounds ([6 x i8], [6 x i8]* @.str, i64 0, i64 0), i32* %1, i32* %2)
  store i32 0, i32* %5, align 4
  br label %18

18:                                               ; preds = %41, %0
  %19 = load i32, i32* %5, align 4
  %20 = load i32, i32* %1, align 4
  %21 = icmp slt i32 %19, %20
  br i1 %21, label %22, label %44

22:                                               ; preds = %18
  store i32 0, i32* %6, align 4
  br label %23

23:                                               ; preds = %37, %22
  %24 = load i32, i32* %6, align 4
  %25 = load i32, i32* %2, align 4
  %26 = icmp slt i32 %24, %25
  br i1 %26, label %27, label %40

27:                                               ; preds = %23
  %28 = load [100 x i32]*, [100 x i32]** %11, align 8
  %29 = load i32, i32* %5, align 4
  %30 = sext i32 %29 to i64
  %31 = getelementptr inbounds [100 x i32], [100 x i32]* %28, i64 %30
  %32 = getelementptr inbounds [100 x i32], [100 x i32]* %31, i64 0, i64 0
  %33 = load i32, i32* %6, align 4
  %34 = sext i32 %33 to i64
  %35 = getelementptr inbounds i32, i32* %32, i64 %34
  %36 = call i32 (i8*, ...) @__isoc99_scanf(i8* getelementptr inbounds ([3 x i8], [3 x i8]* @.str.1, i64 0, i64 0), i32* %35)
  br label %37

37:                                               ; preds = %27
  %38 = load i32, i32* %6, align 4
  %39 = add nsw i32 %38, 1
  store i32 %39, i32* %6, align 4
  br label %23

40:                                               ; preds = %23
  br label %41

41:                                               ; preds = %40
  %42 = load i32, i32* %5, align 4
  %43 = add nsw i32 %42, 1
  store i32 %43, i32* %5, align 4
  br label %18

44:                                               ; preds = %18
  %45 = call i32 (i8*, ...) @__isoc99_scanf(i8* getelementptr inbounds ([6 x i8], [6 x i8]* @.str, i64 0, i64 0), i32* %3, i32* %4)
  store i32 0, i32* %5, align 4
  br label %46

46:                                               ; preds = %69, %44
  %47 = load i32, i32* %5, align 4
  %48 = load i32, i32* %3, align 4
  %49 = icmp slt i32 %47, %48
  br i1 %49, label %50, label %72

50:                                               ; preds = %46
  store i32 0, i32* %6, align 4
  br label %51

51:                                               ; preds = %65, %50
  %52 = load i32, i32* %6, align 4
  %53 = load i32, i32* %4, align 4
  %54 = icmp slt i32 %52, %53
  br i1 %54, label %55, label %68

55:                                               ; preds = %51
  %56 = load [100 x i32]*, [100 x i32]** %12, align 8
  %57 = load i32, i32* %5, align 4
  %58 = sext i32 %57 to i64
  %59 = getelementptr inbounds [100 x i32], [100 x i32]* %56, i64 %58
  %60 = getelementptr inbounds [100 x i32], [100 x i32]* %59, i64 0, i64 0
  %61 = load i32, i32* %6, align 4
  %62 = sext i32 %61 to i64
  %63 = getelementptr inbounds i32, i32* %60, i64 %62
  %64 = call i32 (i8*, ...) @__isoc99_scanf(i8* getelementptr inbounds ([3 x i8], [3 x i8]* @.str.1, i64 0, i64 0), i32* %63)
  br label %65

65:                                               ; preds = %55
  %66 = load i32, i32* %6, align 4
  %67 = add nsw i32 %66, 1
  store i32 %67, i32* %6, align 4
  br label %51

68:                                               ; preds = %51
  br label %69

69:                                               ; preds = %68
  %70 = load i32, i32* %5, align 4
  %71 = add nsw i32 %70, 1
  store i32 %71, i32* %5, align 4
  br label %46

72:                                               ; preds = %46
  store i32 0, i32* %5, align 4
  br label %73

73:                                               ; preds = %138, %72
  %74 = load i32, i32* %5, align 4
  %75 = load i32, i32* %1, align 4
  %76 = icmp slt i32 %74, %75
  br i1 %76, label %77, label %141

77:                                               ; preds = %73
  store i32 0, i32* %6, align 4
  br label %78

78:                                               ; preds = %134, %77
  %79 = load i32, i32* %6, align 4
  %80 = load i32, i32* %4, align 4
  %81 = icmp slt i32 %79, %80
  br i1 %81, label %82, label %137

82:                                               ; preds = %78
  %83 = load [100 x i32]*, [100 x i32]** %13, align 8
  %84 = load i32, i32* %5, align 4
  %85 = sext i32 %84 to i64
  %86 = getelementptr inbounds [100 x i32], [100 x i32]* %83, i64 %85
  %87 = load i32, i32* %6, align 4
  %88 = sext i32 %87 to i64
  %89 = getelementptr inbounds [100 x i32], [100 x i32]* %86, i64 0, i64 %88
  store i32 0, i32* %89, align 4
  store i32 0, i32* %7, align 4
  br label %90

90:                                               ; preds = %130, %82
  %91 = load i32, i32* %7, align 4
  %92 = load i32, i32* %2, align 4
  %93 = icmp slt i32 %91, %92
  br i1 %93, label %94, label %133

94:                                               ; preds = %90
  %95 = load [100 x i32]*, [100 x i32]** %13, align 8
  %96 = load i32, i32* %5, align 4
  %97 = sext i32 %96 to i64
  %98 = getelementptr inbounds [100 x i32], [100 x i32]* %95, i64 %97
  %99 = load i32, i32* %6, align 4
  %100 = sext i32 %99 to i64
  %101 = getelementptr inbounds [100 x i32], [100 x i32]* %98, i64 0, i64 %100
  %102 = load i32, i32* %101, align 4
  %103 = load [100 x i32]*, [100 x i32]** %11, align 8
  %104 = load i32, i32* %5, align 4
  %105 = sext i32 %104 to i64
  %106 = getelementptr inbounds [100 x i32], [100 x i32]* %103, i64 %105
  %107 = getelementptr inbounds [100 x i32], [100 x i32]* %106, i64 0, i64 0
  %108 = load i32, i32* %7, align 4
  %109 = sext i32 %108 to i64
  %110 = getelementptr inbounds i32, i32* %107, i64 %109
  %111 = load i32, i32* %110, align 4
  %112 = load [100 x i32]*, [100 x i32]** %12, align 8
  %113 = load i32, i32* %7, align 4
  %114 = sext i32 %113 to i64
  %115 = getelementptr inbounds [100 x i32], [100 x i32]* %112, i64 %114
  %116 = getelementptr inbounds [100 x i32], [100 x i32]* %115, i64 0, i64 0
  %117 = load i32, i32* %6, align 4
  %118 = sext i32 %117 to i64
  %119 = getelementptr inbounds i32, i32* %116, i64 %118
  %120 = load i32, i32* %119, align 4
  %121 = mul nsw i32 %111, %120
  %122 = add nsw i32 %102, %121
  %123 = load [100 x i32]*, [100 x i32]** %13, align 8
  %124 = load i32, i32* %5, align 4
  %125 = sext i32 %124 to i64
  %126 = getelementptr inbounds [100 x i32], [100 x i32]* %123, i64 %125
  %127 = load i32, i32* %6, align 4
  %128 = sext i32 %127 to i64
  %129 = getelementptr inbounds [100 x i32], [100 x i32]* %126, i64 0, i64 %128
  store i32 %122, i32* %129, align 4
  br label %130

130:                                              ; preds = %94
  %131 = load i32, i32* %7, align 4
  %132 = add nsw i32 %131, 1
  store i32 %132, i32* %7, align 4
  br label %90

133:                                              ; preds = %90
  br label %134

134:                                              ; preds = %133
  %135 = load i32, i32* %6, align 4
  %136 = add nsw i32 %135, 1
  store i32 %136, i32* %6, align 4
  br label %78

137:                                              ; preds = %78
  br label %138

138:                                              ; preds = %137
  %139 = load i32, i32* %5, align 4
  %140 = add nsw i32 %139, 1
  store i32 %140, i32* %5, align 4
  br label %73

141:                                              ; preds = %73
  store i32 0, i32* %5, align 4
  br label %142

142:                                              ; preds = %188, %141
  %143 = load i32, i32* %5, align 4
  %144 = load i32, i32* %1, align 4
  %145 = icmp slt i32 %143, %144
  br i1 %145, label %146, label %191

146:                                              ; preds = %142
  store i32 0, i32* %6, align 4
  br label %147

147:                                              ; preds = %177, %146
  %148 = load i32, i32* %6, align 4
  %149 = load i32, i32* %4, align 4
  %150 = icmp slt i32 %148, %149
  br i1 %150, label %151, label %180

151:                                              ; preds = %147
  %152 = load i32, i32* %6, align 4
  %153 = load i32, i32* %4, align 4
  %154 = sub nsw i32 %153, 1
  %155 = icmp ne i32 %152, %154
  br i1 %155, label %156, label %166

156:                                              ; preds = %151
  %157 = load [100 x i32]*, [100 x i32]** %13, align 8
  %158 = load i32, i32* %5, align 4
  %159 = sext i32 %158 to i64
  %160 = getelementptr inbounds [100 x i32], [100 x i32]* %157, i64 %159
  %161 = load i32, i32* %6, align 4
  %162 = sext i32 %161 to i64
  %163 = getelementptr inbounds [100 x i32], [100 x i32]* %160, i64 0, i64 %162
  %164 = load i32, i32* %163, align 4
  %165 = call i32 (i8*, ...) @printf(i8* getelementptr inbounds ([4 x i8], [4 x i8]* @.str.2, i64 0, i64 0), i32 %164)
  br label %176

166:                                              ; preds = %151
  %167 = load [100 x i32]*, [100 x i32]** %13, align 8
  %168 = load i32, i32* %5, align 4
  %169 = sext i32 %168 to i64
  %170 = getelementptr inbounds [100 x i32], [100 x i32]* %167, i64 %169
  %171 = load i32, i32* %6, align 4
  %172 = sext i32 %171 to i64
  %173 = getelementptr inbounds [100 x i32], [100 x i32]* %170, i64 0, i64 %172
  %174 = load i32, i32* %173, align 4
  %175 = call i32 (i8*, ...) @printf(i8* getelementptr inbounds ([3 x i8], [3 x i8]* @.str.1, i64 0, i64 0), i32 %174)
  br label %176

176:                                              ; preds = %166, %156
  br label %177

177:                                              ; preds = %176
  %178 = load i32, i32* %6, align 4
  %179 = add nsw i32 %178, 1
  store i32 %179, i32* %6, align 4
  br label %147

180:                                              ; preds = %147
  %181 = load i32, i32* %5, align 4
  %182 = load i32, i32* %1, align 4
  %183 = sub nsw i32 %182, 1
  %184 = icmp ne i32 %181, %183
  br i1 %184, label %185, label %187

185:                                              ; preds = %180
  %186 = call i32 (i8*, ...) @printf(i8* getelementptr inbounds ([2 x i8], [2 x i8]* @.str.3, i64 0, i64 0))
  br label %187

187:                                              ; preds = %185, %180
  br label %188

188:                                              ; preds = %187
  %189 = load i32, i32* %5, align 4
  %190 = add nsw i32 %189, 1
  store i32 %190, i32* %5, align 4
  br label %142

191:                                              ; preds = %142
  ret void
}